	.file	"example2.c"
	.text
	.globl	function
	.type	function, @function
function:
.LFB0:
	.cfi_startproc
	pushl	%ebp
	.cfi_def_cfa_offset 8
	.cfi_offset 5, -8
	movl	%esp, %ebp
	.cfi_def_cfa_register 5
	pushl	%ebx
	subl	$20, %esp
	.cfi_offset 3, -12
	call	__x86.get_pc_thunk.ax
	addl	$_GLOBAL_OFFSET_TABLE_, %eax
	subl	$8, %esp
	pushl	8(%ebp)
	leal	-24(%ebp), %edx
	pushl	%edx
	movl	%eax, %ebx
	call	strcpy@PLT
	addl	$16, %esp
	nop
	movl	-4(%ebp), %ebx
	leave
	.cfi_restore 5
	.cfi_restore 3
	.cfi_def_cfa 4, 4
	ret
	.cfi_endproc
.LFE0:
	.size	function, .-function
	.globl	main
	.type	main, @function
main:
.LFB1:
	.cfi_startproc
	leal	4(%esp), %ecx
	.cfi_def_cfa 1, 0
	andl	$-16, %esp
	pushl	-4(%ecx)
	pushl	%ebp
	.cfi_escape 0x10,0x5,0x2,0x75,0
	movl	%esp, %ebp
	pushl	%ecx
	.cfi_escape 0xf,0x3,0x75,0x7c,0x6
	subl	$276, %esp
	call	__x86.get_pc_thunk.ax
	addl	$_GLOBAL_OFFSET_TABLE_, %eax
	movl	$0, -12(%ebp)
	jmp	.L3
.L4:
	leal	-268(%ebp), %edx
	movl	-12(%ebp), %eax
	addl	%edx, %eax
	movb	$65, (%eax)
	addl	$1, -12(%ebp)
.L3:
	cmpl	$254, -12(%ebp)
	jle	.L4
	subl	$12, %esp
	leal	-268(%ebp), %eax
	pushl	%eax
	call	function
	addl	$16, %esp
	nop
	movl	-4(%ebp), %ecx
	.cfi_def_cfa 1, 0
	leave
	.cfi_restore 5
	leal	-4(%ecx), %esp
	.cfi_def_cfa 4, 4
	ret
	.cfi_endproc
.LFE1:
	.size	main, .-main
	.section	.text.__x86.get_pc_thunk.ax,"axG",@progbits,__x86.get_pc_thunk.ax,comdat
	.globl	__x86.get_pc_thunk.ax
	.hidden	__x86.get_pc_thunk.ax
	.type	__x86.get_pc_thunk.ax, @function
__x86.get_pc_thunk.ax:
.LFB2:
	.cfi_startproc
	movl	(%esp), %eax
	ret
	.cfi_endproc
.LFE2:
	.ident	"GCC: (Debian 10.2.1-6) 10.2.1 20210110"
	.section	.note.GNU-stack,"",@progbits
